; ModuleID = '25/997.cpp'
source_filename = "25/997.cpp"
target datalayout = "e-m:e-p270:32:32-p271:32:32-p272:64:64-i64:64-f80:128-n8:16:32:64-S128"
target triple = "x86_64-pc-linux-gnu"

%"class.std::ios_base::Init" = type { i8 }
%"class.std::basic_istream" = type { i32 (...)**, i64, %"class.std::basic_ios" }
%"class.std::basic_ios" = type { %"class.std::ios_base", %"class.std::basic_ostream"*, i8, i8, %"class.std::basic_streambuf"*, %"class.std::ctype"*, %"class.std::num_put"*, %"class.std::num_get"* }
%"class.std::ios_base" = type { i32 (...)**, i64, i64, i32, i32, i32, %"struct.std::ios_base::_Callback_list"*, %"struct.std::ios_base::_Words", [8 x %"struct.std::ios_base::_Words"], i32, %"struct.std::ios_base::_Words"*, %"class.std::locale" }
%"struct.std::ios_base::_Callback_list" = type { %"struct.std::ios_base::_Callback_list"*, void (i32, %"class.std::ios_base"*, i32)*, i32, i32 }
%"struct.std::ios_base::_Words" = type { i8*, i64 }
%"class.std::locale" = type { %"class.std::locale::_Impl"* }
%"class.std::locale::_Impl" = type { i32, %"class.std::locale::facet"**, i64, %"class.std::locale::facet"**, i8** }
%"class.std::locale::facet" = type <{ i32 (...)**, i32, [4 x i8] }>
%"class.std::basic_ostream" = type { i32 (...)**, %"class.std::basic_ios" }
%"class.std::basic_streambuf" = type { i32 (...)**, i8*, i8*, i8*, i8*, i8*, i8*, %"class.std::locale" }
%"class.std::ctype" = type <{ %"class.std::locale::facet.base", [4 x i8], %struct.__locale_struct*, i8, [7 x i8], i32*, i32*, i16*, i8, [256 x i8], [256 x i8], i8, [6 x i8] }>
%"class.std::locale::facet.base" = type <{ i32 (...)**, i32 }>
%struct.__locale_struct = type { [13 x %struct.__locale_data*], i16*, i32*, i32*, [13 x i8*] }
%struct.__locale_data = type opaque
%"class.std::num_put" = type { %"class.std::locale::facet.base", [4 x i8] }
%"class.std::num_get" = type { %"class.std::locale::facet.base", [4 x i8] }

@_ZStL8__ioinit = internal global %"class.std::ios_base::Init" zeroinitializer, align 1
@__dso_handle = external hidden global i8
@_ZSt3cin = external dso_local global %"class.std::basic_istream", align 8
@_ZSt4cout = external dso_local global %"class.std::basic_ostream", align 8
@llvm.global_ctors = appending global [1 x { i32, void ()*, i8* }] [{ i32, void ()*, i8* } { i32 65535, void ()* @_GLOBAL__sub_I_997.cpp, i8* null }]

; Function Attrs: noinline uwtable
define internal void @__cxx_global_var_init() #0 section ".text.startup" {
  call void @_ZNSt8ios_base4InitC1Ev(%"class.std::ios_base::Init"* @_ZStL8__ioinit)
  %1 = call i32 @__cxa_atexit(void (i8*)* bitcast (void (%"class.std::ios_base::Init"*)* @_ZNSt8ios_base4InitD1Ev to void (i8*)*), i8* getelementptr inbounds (%"class.std::ios_base::Init", %"class.std::ios_base::Init"* @_ZStL8__ioinit, i32 0, i32 0), i8* @__dso_handle) #3
  ret void
}

declare dso_local void @_ZNSt8ios_base4InitC1Ev(%"class.std::ios_base::Init"*) unnamed_addr #1

; Function Attrs: nounwind
declare dso_local void @_ZNSt8ios_base4InitD1Ev(%"class.std::ios_base::Init"*) unnamed_addr #2

; Function Attrs: nounwind
declare dso_local i32 @__cxa_atexit(void (i8*)*, i8*, i8*) #3

; Function Attrs: noinline norecurse uwtable
define dso_local i32 @main() #4 {
  %1 = alloca i32, align 4
  %2 = alloca i32, align 4
  %3 = alloca [50 x i32], align 16
  %4 = alloca [50 x i32], align 16
  %5 = alloca i32, align 4
  %6 = alloca i32, align 4
  %7 = alloca i32, align 4
  %8 = alloca i32, align 4
  %9 = alloca i32, align 4
  store i32 0, i32* %1, align 4
  store i32 0, i32* %2, align 4
  store i32 0, i32* %5, align 4
  store i32 0, i32* %6, align 4
  store i32 0, i32* %7, align 4
  %10 = call dereferenceable(280) %"class.std::basic_istream"* @_ZNSirsERi(%"class.std::basic_istream"* @_ZSt3cin, i32* dereferenceable(4) %2)
  store i32 0, i32* %8, align 4
  %11 = getelementptr inbounds [50 x i32], [50 x i32]* %3, i64 0, i64 0
  store i32 1, i32* %11, align 16
  %12 = getelementptr inbounds [50 x i32], [50 x i32]* %4, i64 0, i64 0
  store i32 1, i32* %12, align 16
  store i32 1, i32* %8, align 4
  br label %13

13:                                               ; preds = %23, %0
  %14 = load i32, i32* %8, align 4
  %15 = icmp slt i32 %14, 50
  br i1 %15, label %16, label %26

16:                                               ; preds = %13
  %17 = load i32, i32* %8, align 4
  %18 = sext i32 %17 to i64
  %19 = getelementptr inbounds [50 x i32], [50 x i32]* %3, i64 0, i64 %18
  store i32 0, i32* %19, align 4
  %20 = load i32, i32* %8, align 4
  %21 = sext i32 %20 to i64
  %22 = getelementptr inbounds [50 x i32], [50 x i32]* %4, i64 0, i64 %21
  store i32 0, i32* %22, align 4
  br label %23

23:                                               ; preds = %16
  %24 = load i32, i32* %8, align 4
  %25 = add nsw i32 %24, 1
  store i32 %25, i32* %8, align 4
  br label %13

26:                                               ; preds = %13
  store i32 0, i32* %8, align 4
  br label %27

27:                                               ; preds = %110, %26
  %28 = load i32, i32* %8, align 4
  %29 = load i32, i32* %2, align 4
  %30 = icmp slt i32 %28, %29
  br i1 %30, label %31, label %113

31:                                               ; preds = %27
  store i32 0, i32* %6, align 4
  store i32 0, i32* %7, align 4
  %32 = load i32, i32* %6, align 4
  %33 = sext i32 %32 to i64
  %34 = getelementptr inbounds [50 x i32], [50 x i32]* %3, i64 0, i64 %33
  %35 = load i32, i32* %34, align 4
  %36 = mul nsw i32 %35, 2
  %37 = load i32, i32* %7, align 4
  %38 = add nsw i32 %36, %37
  store i32 %38, i32* %5, align 4
  %39 = load i32, i32* %5, align 4
  %40 = icmp slt i32 %39, 10
  br i1 %40, label %41, label %46

41:                                               ; preds = %31
  %42 = load i32, i32* %5, align 4
  %43 = load i32, i32* %6, align 4
  %44 = sext i32 %43 to i64
  %45 = getelementptr inbounds [50 x i32], [50 x i32]* %4, i64 0, i64 %44
  store i32 %42, i32* %45, align 4
  br label %58

46:                                               ; preds = %31
  %47 = load i32, i32* %5, align 4
  %48 = icmp sge i32 %47, 10
  br i1 %48, label %49, label %57

49:                                               ; preds = %46
  %50 = load i32, i32* %5, align 4
  %51 = srem i32 %50, 10
  %52 = load i32, i32* %6, align 4
  %53 = sext i32 %52 to i64
  %54 = getelementptr inbounds [50 x i32], [50 x i32]* %4, i64 0, i64 %53
  store i32 %51, i32* %54, align 4
  %55 = load i32, i32* %5, align 4
  %56 = sdiv i32 %55, 10
  store i32 %56, i32* %7, align 4
  br label %57

57:                                               ; preds = %49, %46
  br label %58

58:                                               ; preds = %57, %41
  %59 = load i32, i32* %6, align 4
  %60 = add nsw i32 %59, 1
  store i32 %60, i32* %6, align 4
  br label %61

61:                                               ; preds = %91, %58
  %62 = load i32, i32* %6, align 4
  %63 = icmp slt i32 %62, 50
  br i1 %63, label %64, label %94

64:                                               ; preds = %61
  %65 = load i32, i32* %6, align 4
  %66 = sext i32 %65 to i64
  %67 = getelementptr inbounds [50 x i32], [50 x i32]* %3, i64 0, i64 %66
  %68 = load i32, i32* %67, align 4
  %69 = mul nsw i32 %68, 2
  %70 = load i32, i32* %7, align 4
  %71 = add nsw i32 %69, %70
  store i32 %71, i32* %5, align 4
  %72 = load i32, i32* %5, align 4
  %73 = icmp slt i32 %72, 10
  br i1 %73, label %74, label %79

74:                                               ; preds = %64
  %75 = load i32, i32* %5, align 4
  %76 = load i32, i32* %6, align 4
  %77 = sext i32 %76 to i64
  %78 = getelementptr inbounds [50 x i32], [50 x i32]* %4, i64 0, i64 %77
  store i32 %75, i32* %78, align 4
  store i32 0, i32* %7, align 4
  br label %91

79:                                               ; preds = %64
  %80 = load i32, i32* %5, align 4
  %81 = icmp sge i32 %80, 10
  br i1 %81, label %82, label %90

82:                                               ; preds = %79
  %83 = load i32, i32* %5, align 4
  %84 = srem i32 %83, 10
  %85 = load i32, i32* %6, align 4
  %86 = sext i32 %85 to i64
  %87 = getelementptr inbounds [50 x i32], [50 x i32]* %4, i64 0, i64 %86
  store i32 %84, i32* %87, align 4
  %88 = load i32, i32* %5, align 4
  %89 = sdiv i32 %88, 10
  store i32 %89, i32* %7, align 4
  br label %90

90:                                               ; preds = %82, %79
  br label %91

91:                                               ; preds = %90, %74
  %92 = load i32, i32* %6, align 4
  %93 = add nsw i32 %92, 1
  store i32 %93, i32* %6, align 4
  br label %61

94:                                               ; preds = %61
  store i32 0, i32* %9, align 4
  br label %95

95:                                               ; preds = %106, %94
  %96 = load i32, i32* %9, align 4
  %97 = icmp slt i32 %96, 50
  br i1 %97, label %98, label %109

98:                                               ; preds = %95
  %99 = load i32, i32* %9, align 4
  %100 = sext i32 %99 to i64
  %101 = getelementptr inbounds [50 x i32], [50 x i32]* %4, i64 0, i64 %100
  %102 = load i32, i32* %101, align 4
  %103 = load i32, i32* %9, align 4
  %104 = sext i32 %103 to i64
  %105 = getelementptr inbounds [50 x i32], [50 x i32]* %3, i64 0, i64 %104
  store i32 %102, i32* %105, align 4
  br label %106

106:                                              ; preds = %98
  %107 = load i32, i32* %9, align 4
  %108 = add nsw i32 %107, 1
  store i32 %108, i32* %9, align 4
  br label %95

109:                                              ; preds = %95
  br label %110

110:                                              ; preds = %109
  %111 = load i32, i32* %8, align 4
  %112 = add nsw i32 %111, 1
  store i32 %112, i32* %8, align 4
  br label %27

113:                                              ; preds = %27
  store i32 49, i32* %8, align 4
  br label %114

114:                                              ; preds = %121, %113
  %115 = load i32, i32* %8, align 4
  %116 = add nsw i32 %115, -1
  store i32 %116, i32* %8, align 4
  %117 = sext i32 %115 to i64
  %118 = getelementptr inbounds [50 x i32], [50 x i32]* %3, i64 0, i64 %117
  %119 = load i32, i32* %118, align 4
  %120 = icmp eq i32 %119, 0
  br i1 %120, label %121, label %122

121:                                              ; preds = %114
  br label %114

122:                                              ; preds = %114
  %123 = load i32, i32* %8, align 4
  %124 = add nsw i32 %123, 1
  store i32 %124, i32* %8, align 4
  br label %125

125:                                              ; preds = %134, %122
  %126 = load i32, i32* %8, align 4
  %127 = icmp sge i32 %126, 0
  br i1 %127, label %128, label %137

128:                                              ; preds = %125
  %129 = load i32, i32* %8, align 4
  %130 = sext i32 %129 to i64
  %131 = getelementptr inbounds [50 x i32], [50 x i32]* %3, i64 0, i64 %130
  %132 = load i32, i32* %131, align 4
  %133 = call dereferenceable(272) %"class.std::basic_ostream"* @_ZNSolsEi(%"class.std::basic_ostream"* @_ZSt4cout, i32 %132)
  br label %134

134:                                              ; preds = %128
  %135 = load i32, i32* %8, align 4
  %136 = add nsw i32 %135, -1
  store i32 %136, i32* %8, align 4
  br label %125

137:                                              ; preds = %125
  ret i32 0
}

declare dso_local dereferenceable(280) %"class.std::basic_istream"* @_ZNSirsERi(%"class.std::basic_istream"*, i32* dereferenceable(4)) #1

declare dso_local dereferenceable(272) %"class.std::basic_ostream"* @_ZNSolsEi(%"class.std::basic_ostream"*, i32) #1

; Function Attrs: noinline uwtable
define internal void @_GLOBAL__sub_I_997.cpp() #0 section ".text.startup" {
  call void @__cxx_global_var_init()
  ret void
}


!llvm.module.flags = !{!0}
!llvm.ident = !{!1}

!0 = !{i32 1, !"wchar_size", i32 4}
!1 = !{!"clang version 10.0.0-4ubuntu1 "}
