; ModuleID = 'source-C-CXX/24/997.cpp'
source_filename = "source-C-CXX/24/997.cpp"
target datalayout = "e-m:e-p270:32:32-p271:32:32-p272:64:64-i64:64-f80:128-n8:16:32:64-S128"
target triple = "x86_64-pc-linux-gnu"

%"class.std::ios_base::Init" = type { i8 }
%"class.std::basic_istream" = type { i32 (...)**, i64, %"class.std::basic_ios" }
%"class.std::basic_ios" = type { %"class.std::ios_base", %"class.std::basic_ostream"*, i8, i8, %"class.std::basic_streambuf"*, %"class.std::ctype"*, %"class.std::num_put"*, %"class.std::num_get"* }
%"class.std::ios_base" = type { i32 (...)**, i64, i64, i32, i32, i32, %"struct.std::ios_base::_Callback_list"*, %"struct.std::ios_base::_Words", [8 x %"struct.std::ios_base::_Words"], i32, %"struct.std::ios_base::_Words"*, %"class.std::locale" }
%"struct.std::ios_base::_Callback_list" = type { %"struct.std::ios_base::_Callback_list"*, void (i32, %"class.std::ios_base"*, i32)*, i32, i32 }
%"struct.std::ios_base::_Words" = type { i8*, i64 }
%"class.std::locale" = type { %"class.std::locale::_Impl"* }
%"class.std::locale::_Impl" = type { i32, %"class.std::locale::facet"**, i64, %"class.std::locale::facet"**, i8** }
%"class.std::locale::facet" = type <{ i32 (...)**, i32, [4 x i8] }>
%"class.std::basic_ostream" = type { i32 (...)**, %"class.std::basic_ios" }
%"class.std::basic_streambuf" = type { i32 (...)**, i8*, i8*, i8*, i8*, i8*, i8*, %"class.std::locale" }
%"class.std::ctype" = type <{ %"class.std::locale::facet.base", [4 x i8], %struct.__locale_struct*, i8, [7 x i8], i32*, i32*, i16*, i8, [256 x i8], [256 x i8], i8, [6 x i8] }>
%"class.std::locale::facet.base" = type <{ i32 (...)**, i32 }>
%struct.__locale_struct = type { [13 x %struct.__locale_data*], i16*, i32*, i32*, [13 x i8*] }
%struct.__locale_data = type opaque
%"class.std::num_put" = type { %"class.std::locale::facet.base", [4 x i8] }
%"class.std::num_get" = type { %"class.std::locale::facet.base", [4 x i8] }

@_ZStL8__ioinit = internal global %"class.std::ios_base::Init" zeroinitializer, align 1
@__dso_handle = external hidden global i8
@_ZSt3cin = external global %"class.std::basic_istream", align 8
@_ZSt4cout = external global %"class.std::basic_ostream", align 8
@llvm.global_ctors = appending global [1 x { i32, void ()*, i8* }] [{ i32, void ()*, i8* } { i32 65535, void ()* @_GLOBAL__sub_I_997.cpp, i8* null }]

declare void @_ZNSt8ios_base4InitC1Ev(%"class.std::ios_base::Init"* nonnull align 1 dereferenceable(1)) unnamed_addr #0

; Function Attrs: nounwind
declare void @_ZNSt8ios_base4InitD1Ev(%"class.std::ios_base::Init"* nonnull align 1 dereferenceable(1)) unnamed_addr #1

; Function Attrs: nofree nounwind
declare i32 @__cxa_atexit(void (i8*)*, i8*, i8*) local_unnamed_addr #2

; Function Attrs: mustprogress norecurse sspstrong uwtable
define dso_local i32 @main() local_unnamed_addr #3 {
  %1 = alloca i32, align 4
  %2 = alloca [50 x i32], align 16
  %3 = bitcast [50 x i32]* %2 to i8*
  %4 = alloca [50 x i32], align 16
  %5 = bitcast [50 x i32]* %4 to i8*
  %6 = bitcast i32* %1 to i8*
  call void @llvm.lifetime.start.p0i8(i64 4, i8* nonnull %6) #8
  store i32 0, i32* %1, align 4, !tbaa !5
  call void @llvm.lifetime.start.p0i8(i64 200, i8* nonnull %3) #8
  call void @llvm.lifetime.start.p0i8(i64 200, i8* nonnull %5) #8
  %7 = call nonnull align 8 dereferenceable(16) %"class.std::basic_istream"* @_ZNSirsERi(%"class.std::basic_istream"* nonnull align 8 dereferenceable(16) @_ZSt3cin, i32* nonnull align 4 dereferenceable(4) %1)
  %8 = getelementptr inbounds [50 x i32], [50 x i32]* %2, i64 0, i64 0
  store i32 1, i32* %8, align 16, !tbaa !5
  %9 = getelementptr inbounds [50 x i32], [50 x i32]* %4, i64 0, i64 0
  %10 = getelementptr inbounds [50 x i32], [50 x i32]* %2, i64 0, i64 1
  %11 = bitcast i32* %10 to i8*
  call void @llvm.memset.p0i8.i64(i8* noundef nonnull align 4 dereferenceable(196) %11, i8 0, i64 196, i1 false)
  %12 = getelementptr inbounds [50 x i32], [50 x i32]* %4, i64 0, i64 1
  %13 = bitcast i32* %12 to i8*
  call void @llvm.memset.p0i8.i64(i8* noundef nonnull align 4 dereferenceable(196) %13, i8 0, i64 196, i1 false)
  %14 = load i32, i32* %1, align 4, !tbaa !5
  %15 = icmp sgt i32 %14, 0
  br i1 %15, label %17, label %16

16:                                               ; preds = %45, %0
  br label %50

17:                                               ; preds = %0, %48
  %18 = phi i32 [ %49, %48 ], [ 1, %0 ]
  %19 = phi i32 [ %46, %48 ], [ 0, %0 ]
  %20 = shl nsw i32 %18, 1
  %21 = icmp slt i32 %18, 5
  br i1 %21, label %22, label %23

22:                                               ; preds = %17
  store i32 %20, i32* %9, align 16, !tbaa !5
  br label %26

23:                                               ; preds = %17
  %24 = srem i32 %20, 10
  store i32 %24, i32* %9, align 16, !tbaa !5
  %25 = udiv i32 %18, 5
  br label %26

26:                                               ; preds = %23, %22
  %27 = phi i32 [ 0, %22 ], [ %25, %23 ]
  br label %28

28:                                               ; preds = %26, %39
  %29 = phi i64 [ %43, %39 ], [ 1, %26 ]
  %30 = phi i32 [ %41, %39 ], [ %27, %26 ]
  %31 = getelementptr inbounds [50 x i32], [50 x i32]* %2, i64 0, i64 %29
  %32 = load i32, i32* %31, align 4, !tbaa !5
  %33 = shl nsw i32 %32, 1
  %34 = add nsw i32 %33, %30
  %35 = icmp slt i32 %34, 10
  br i1 %35, label %39, label %36

36:                                               ; preds = %28
  %37 = urem i32 %34, 10
  %38 = udiv i32 %34, 10
  br label %39

39:                                               ; preds = %28, %36
  %40 = phi i32 [ %37, %36 ], [ %34, %28 ]
  %41 = phi i32 [ %38, %36 ], [ 0, %28 ]
  %42 = getelementptr inbounds [50 x i32], [50 x i32]* %4, i64 0, i64 %29
  store i32 %40, i32* %42, align 4
  %43 = add nuw nsw i64 %29, 1
  %44 = icmp eq i64 %43, 50
  br i1 %44, label %45, label %28, !llvm.loop !9

45:                                               ; preds = %39
  call void @llvm.memcpy.p0i8.p0i8.i64(i8* noundef nonnull align 16 dereferenceable(200) %3, i8* noundef nonnull align 16 dereferenceable(200) %5, i64 200, i1 false)
  %46 = add nuw nsw i32 %19, 1
  %47 = icmp eq i32 %46, %14
  br i1 %47, label %16, label %48, !llvm.loop !11

48:                                               ; preds = %45
  %49 = load i32, i32* %8, align 16, !tbaa !5
  br label %17

50:                                               ; preds = %16, %50
  %51 = phi i64 [ %52, %50 ], [ 49, %16 ]
  %52 = add i64 %51, -1
  %53 = getelementptr inbounds [50 x i32], [50 x i32]* %2, i64 0, i64 %51
  %54 = load i32, i32* %53, align 4, !tbaa !5
  %55 = icmp eq i32 %54, 0
  br i1 %55, label %50, label %56, !llvm.loop !12

56:                                               ; preds = %50
  %57 = trunc i64 %51 to i32
  %58 = icmp sgt i32 %57, -1
  br i1 %58, label %59, label %68

59:                                               ; preds = %56
  %60 = and i64 %51, 4294967295
  br label %61

61:                                               ; preds = %59, %61
  %62 = phi i64 [ %60, %59 ], [ %67, %61 ]
  %63 = getelementptr inbounds [50 x i32], [50 x i32]* %2, i64 0, i64 %62
  %64 = load i32, i32* %63, align 4, !tbaa !5
  %65 = call nonnull align 8 dereferenceable(8) %"class.std::basic_ostream"* @_ZNSolsEi(%"class.std::basic_ostream"* nonnull align 8 dereferenceable(8) @_ZSt4cout, i32 %64)
  %66 = icmp sgt i64 %62, 0
  %67 = add nsw i64 %62, -1
  br i1 %66, label %61, label %68, !llvm.loop !13

68:                                               ; preds = %61, %56
  call void @llvm.lifetime.end.p0i8(i64 200, i8* nonnull %5) #8
  call void @llvm.lifetime.end.p0i8(i64 200, i8* nonnull %3) #8
  call void @llvm.lifetime.end.p0i8(i64 4, i8* nonnull %6) #8
  ret i32 0
}

; Function Attrs: argmemonly mustprogress nofree nosync nounwind willreturn
declare void @llvm.lifetime.start.p0i8(i64 immarg, i8* nocapture) #4

declare nonnull align 8 dereferenceable(16) %"class.std::basic_istream"* @_ZNSirsERi(%"class.std::basic_istream"* nonnull align 8 dereferenceable(16), i32* nonnull align 4 dereferenceable(4)) local_unnamed_addr #0

; Function Attrs: argmemonly mustprogress nofree nosync nounwind willreturn
declare void @llvm.lifetime.end.p0i8(i64 immarg, i8* nocapture) #4

declare nonnull align 8 dereferenceable(8) %"class.std::basic_ostream"* @_ZNSolsEi(%"class.std::basic_ostream"* nonnull align 8 dereferenceable(8), i32) local_unnamed_addr #0

; Function Attrs: sspstrong uwtable
define internal void @_GLOBAL__sub_I_997.cpp() #5 section ".text.startup" {
  tail call void @_ZNSt8ios_base4InitC1Ev(%"class.std::ios_base::Init"* nonnull align 1 dereferenceable(1) @_ZStL8__ioinit)
  %1 = tail call i32 @__cxa_atexit(void (i8*)* bitcast (void (%"class.std::ios_base::Init"*)* @_ZNSt8ios_base4InitD1Ev to void (i8*)*), i8* getelementptr inbounds (%"class.std::ios_base::Init", %"class.std::ios_base::Init"* @_ZStL8__ioinit, i64 0, i32 0), i8* nonnull @__dso_handle) #8
  ret void
}

; Function Attrs: argmemonly nofree nounwind willreturn writeonly
declare void @llvm.memset.p0i8.i64(i8* nocapture writeonly, i8, i64, i1 immarg) #6

; Function Attrs: argmemonly nofree nounwind willreturn
declare void @llvm.memcpy.p0i8.p0i8.i64(i8* noalias nocapture writeonly, i8* noalias nocapture readonly, i64, i1 immarg) #7


!llvm.module.flags = !{!0, !1, !2, !3}
!llvm.ident = !{!4}

!0 = !{i32 1, !"wchar_size", i32 4}
!1 = !{i32 7, !"PIC Level", i32 2}
!2 = !{i32 7, !"PIE Level", i32 2}
!3 = !{i32 7, !"uwtable", i32 1}
!4 = !{!"clang version 13.0.0"}
!5 = !{!6, !6, i64 0}
!6 = !{!"int", !7, i64 0}
!7 = !{!"omnipotent char", !8, i64 0}
!8 = !{!"Simple C++ TBAA"}
!9 = distinct !{!9, !10}
!10 = !{!"llvm.loop.mustprogress"}
!11 = distinct !{!11, !10}
!12 = distinct !{!12, !10}
!13 = distinct !{!13, !10}
